; Function Attrs: nounwind uwtable
define range(i32 -1, 1) i32 @H5Sselect_none(i64 noundef %0) local_unnamed_addr #3 {
  %2 = alloca %struct.H5CX_node_t, align 8
  call void @llvm.lifetime.start.p0(i64 480, ptr nonnull %2) #7
  call void @llvm.memset.p0.i64(ptr noundef nonnull align 8 dereferenceable(480) %2, i8 0, i64 480, i1 false)
  %3 = load i8, ptr @H5_libinit_g, align 1, !tbaa !3, !range !7, !noundef !8
  %4 = trunc nuw i8 %3 to i1
  %5 = load i8, ptr @H5_libterm_g, align 1, !range !7
  %6 = trunc nuw i8 %5 to i1
  %7 = select i1 %4, i1 true, i1 %6
  br i1 %7, label %15, label %8, !prof !9

8:                                                ; preds = %1
  %9 = tail call i32 @H5_init_library() #7
  %10 = icmp slt i32 %9, 0
  br i1 %10, label %11, label %._crit_edge, !prof !32

._crit_edge:                                      ; preds = %8
  %.pre = load i8, ptr @H5_libterm_g, align 1, !range !7
  br label %15

11:                                               ; preds = %8
  %12 = load i64, ptr @H5E_FUNC_g, align 8, !tbaa !28
  %13 = load i64, ptr @H5E_CANTINIT_g, align 8, !tbaa !28
  %14 = tail call i32 (ptr, ptr, i32, i64, i64, ptr, ...) @H5E_printf_stack(ptr noundef nonnull @.str, ptr noundef nonnull @__func__.H5Sselect_none, i32 noundef 1058, i64 noundef %12, i64 noundef %13, ptr noundef nonnull @.str.3) #7
  br label %.thread20

15:                                               ; preds = %._crit_edge, %1
  %16 = phi i8 [ %.pre, %._crit_edge ], [ %5, %1 ]
  %17 = load i8, ptr @H5S_init_g, align 1, !tbaa !3, !range !7, !noundef !8
  %18 = trunc nuw i8 %17 to i1
  %19 = trunc nuw i8 %16 to i1
  %20 = select i1 %18, i1 true, i1 %19
  br i1 %20, label %28, label %21, !prof !9

21:                                               ; preds = %15
  store i8 1, ptr @H5S_init_g, align 1, !tbaa !3
  %22 = tail call i32 @H5S__init_package() #7
  %23 = icmp slt i32 %22, 0
  br i1 %23, label %24, label %28, !prof !33

24:                                               ; preds = %21
  store i8 0, ptr @H5S_init_g, align 1, !tbaa !3
  %25 = load i64, ptr @H5E_FUNC_g, align 8, !tbaa !28
  %26 = load i64, ptr @H5E_CANTINIT_g, align 8, !tbaa !28
  %27 = tail call i32 (ptr, ptr, i32, i64, i64, ptr, ...) @H5E_printf_stack(ptr noundef nonnull @.str, ptr noundef nonnull @__func__.H5Sselect_none, i32 noundef 1058, i64 noundef %25, i64 noundef %26, ptr noundef nonnull @.str.1) #7
  br label %.thread20

28:                                               ; preds = %15, %21
  %29 = call i32 @H5CX_push(ptr noundef nonnull %2) #7
  %30 = icmp slt i32 %29, 0
  br i1 %30, label %31, label %35, !prof !32

31:                                               ; preds = %28
  %32 = load i64, ptr @H5E_FUNC_g, align 8, !tbaa !28
  %33 = load i64, ptr @H5E_CANTSET_g, align 8, !tbaa !28
  %34 = call i32 (ptr, ptr, i32, i64, i64, ptr, ...) @H5E_printf_stack(ptr noundef nonnull @.str, ptr noundef nonnull @__func__.H5Sselect_none, i32 noundef 1058, i64 noundef %32, i64 noundef %33, ptr noundef nonnull @.str.4) #7
  br label %.thread20

35:                                               ; preds = %28
  %36 = call i32 @H5E_clear_stack() #7
  %37 = call ptr @H5I_object_verify(i64 noundef %0, i32 noundef 4) #7
  %38 = icmp eq ptr %37, null
  br i1 %38, label %39, label %43, !prof !34

39:                                               ; preds = %35
  %40 = load i64, ptr @H5E_ARGS_g, align 8, !tbaa !28
  %41 = load i64, ptr @H5E_BADTYPE_g, align 8, !tbaa !28
  %42 = call i32 (ptr, ptr, i32, i64, i64, ptr, ...) @H5E_printf_stack(ptr noundef nonnull @.str, ptr noundef nonnull @__func__.H5Sselect_none, i32 noundef 1062, i64 noundef %40, i64 noundef %41, ptr noundef nonnull @.str.5) #7
  br label %.thread26

43:                                               ; preds = %35
  %44 = call i32 @H5S_select_none(ptr noundef nonnull %37)
  %45 = icmp slt i32 %44, 0
  br i1 %45, label %46, label %51, !prof !34

46:                                               ; preds = %43
  %47 = load i64, ptr @H5E_DATASPACE_g, align 8, !tbaa !28
  %48 = load i64, ptr @H5E_CANTDELETE_g, align 8, !tbaa !28
  %49 = call i32 (ptr, ptr, i32, i64, i64, ptr, ...) @H5E_printf_stack(ptr noundef nonnull @.str, ptr noundef nonnull @__func__.H5Sselect_none, i32 noundef 1066, i64 noundef %47, i64 noundef %48, ptr noundef nonnull @.str.6) #7
  br label %.thread26

.thread26:                                        ; preds = %46, %39
  %50 = call i32 @H5CX_pop(i1 noundef zeroext true) #7
  br label %.thread20

51:                                               ; preds = %43
  %52 = call i32 @H5CX_pop(i1 noundef zeroext true) #7
  br label %54

.thread20:                                        ; preds = %31, %24, %11, %.thread26
  %53 = call i32 @H5E_dump_api_stack() #7
  br label %54

54:                                               ; preds = %51, %.thread20
  %.0101523 = phi i32 [ -1, %.thread20 ], [ 0, %51 ]
  call void @llvm.lifetime.end.p0(i64 480, ptr nonnull %2) #7
  ret i32 %.0101523
}